; Function Attrs: mustprogress uwtable
define dso_local noundef range(i64 0, 4294967296) i64 @_Z20V3HasherUncachedHashRK7AstNode(ptr noundef nonnull align 8 dereferenceable(152) %0) local_unnamed_addr #3 personality ptr @__gxx_personality_v0 {
  %2 = alloca %class.HasherVisitor, align 8
  call void @llvm.lifetime.start.p0(i64 64, ptr nonnull %2) #19
  store ptr getelementptr inbounds nuw inrange(-16, 3736) (i8, ptr @_ZTV13HasherVisitor, i64 16), ptr %2, align 8, !tbaa !21
  %3 = getelementptr inbounds nuw i8, ptr %2, i64 8
  store i32 0, ptr %3, align 8, !tbaa !23
  %4 = getelementptr inbounds nuw i8, ptr %2, i64 12
  store i8 0, ptr %4, align 4, !tbaa !25
  %5 = getelementptr inbounds nuw i8, ptr %2, i64 24
  store i32 0, ptr %5, align 8, !tbaa !38
  %6 = getelementptr inbounds nuw i8, ptr %2, i64 32
  store ptr null, ptr %6, align 8, !tbaa !39
  %7 = getelementptr inbounds nuw i8, ptr %2, i64 40
  store ptr %5, ptr %7, align 8, !tbaa !40
  %8 = getelementptr inbounds nuw i8, ptr %2, i64 48
  store ptr %5, ptr %8, align 8, !tbaa !41
  %9 = getelementptr inbounds nuw i8, ptr %2, i64 56
  store i64 0, ptr %9, align 8, !tbaa !42
  %10 = load ptr, ptr %0, align 8, !tbaa !21
  %11 = getelementptr inbounds nuw i8, ptr %10, i64 288
  %12 = load ptr, ptr %11, align 8
  invoke void %12(ptr noundef nonnull align 8 dereferenceable(152) %0, ptr noundef nonnull align 8 dereferenceable(64) %2)
          to label %_ZN13HasherVisitorC2EPK7AstNodeNS_8UncachedE.exit.i unwind label %13

13:                                               ; preds = %1
  %14 = landingpad { ptr, i32 }
          cleanup
  %15 = getelementptr inbounds nuw i8, ptr %2, i64 16
  call void @_ZNSt3setIP7AstNodeSt4lessIS1_ESaIS1_EED2Ev(ptr noundef nonnull align 8 dereferenceable(48) %15) #19
  resume { ptr, i32 } %14

_ZN13HasherVisitorC2EPK7AstNodeNS_8UncachedE.exit.i: ; preds = %1
  %.sroa.0.0.copyload.i.i = load i32, ptr %3, align 8, !tbaa !20
  %16 = getelementptr inbounds nuw i8, ptr %2, i64 16
  %17 = load ptr, ptr %6, align 8, !tbaa !39
  invoke void @_ZNSt8_Rb_treeIP7AstNodeS1_St9_IdentityIS1_ESt4lessIS1_ESaIS1_EE8_M_eraseEPSt13_Rb_tree_nodeIS1_E(ptr noundef nonnull align 8 dereferenceable(48) %16, ptr noundef %17)
          to label %_ZN8V3Hasher12uncachedHashEPK7AstNode.exit unwind label %18

18:                                               ; preds = %_ZN13HasherVisitorC2EPK7AstNodeNS_8UncachedE.exit.i
  %19 = landingpad { ptr, i32 }
          catch ptr null
  %20 = extractvalue { ptr, i32 } %19, 0
  call void @__clang_call_terminate(ptr %20) #20
  unreachable

_ZN8V3Hasher12uncachedHashEPK7AstNode.exit:       ; preds = %_ZN13HasherVisitorC2EPK7AstNodeNS_8UncachedE.exit.i
  call void @llvm.lifetime.end.p0(i64 64, ptr nonnull %2) #19
  %21 = zext i32 %.sroa.0.0.copyload.i.i to i64
  ret i64 %21
}